; Function Attrs: nounwind uwtable
define ptr @X509_time_adj(ptr noundef %0, i64 noundef %1, ptr noundef readonly captures(address_is_null) %2) local_unnamed_addr #0 {
  %4 = alloca i64, align 8
  call void @llvm.lifetime.start.p0(i64 8, ptr nonnull %4) #10
  %.not.i = icmp eq ptr %2, null
  br i1 %.not.i, label %7, label %5

5:                                                ; preds = %3
  %6 = load i64, ptr %2, align 8, !tbaa !101
  store i64 %6, ptr %4, align 8, !tbaa !101
  br label %9

7:                                                ; preds = %3
  %8 = call i64 @time(ptr noundef nonnull %4) #10
  br label %9

9:                                                ; preds = %7, %5
  %.not18.i = icmp eq ptr %0, null
  br i1 %.not18.i, label %24, label %10

10:                                               ; preds = %9
  %11 = getelementptr inbounds nuw i8, ptr %0, i64 16
  %12 = load i64, ptr %11, align 8, !tbaa !102
  %13 = and i64 %12, 64
  %14 = icmp eq i64 %13, 0
  br i1 %14, label %15, label %24

15:                                               ; preds = %10
  %16 = getelementptr inbounds nuw i8, ptr %0, i64 4
  %17 = load i32, ptr %16, align 4, !tbaa !97
  switch i32 %17, label %24 [
    i32 23, label %18
    i32 24, label %21
  ]

18:                                               ; preds = %15
  %19 = load i64, ptr %4, align 8, !tbaa !101
  %20 = call ptr @ASN1_UTCTIME_adj(ptr noundef nonnull %0, i64 noundef %19, i32 noundef 0, i64 noundef %1) #10
  br label %X509_time_adj_ex.exit

21:                                               ; preds = %15
  %22 = load i64, ptr %4, align 8, !tbaa !101
  %23 = call ptr @ASN1_GENERALIZEDTIME_adj(ptr noundef nonnull %0, i64 noundef %22, i32 noundef 0, i64 noundef %1) #10
  br label %X509_time_adj_ex.exit

24:                                               ; preds = %15, %10, %9
  %25 = load i64, ptr %4, align 8, !tbaa !101
  %26 = call ptr @ASN1_TIME_adj(ptr noundef %0, i64 noundef %25, i32 noundef 0, i64 noundef %1) #10
  br label %X509_time_adj_ex.exit

X509_time_adj_ex.exit:                            ; preds = %18, %21, %24
  %.0.i = phi ptr [ %20, %18 ], [ %23, %21 ], [ %26, %24 ]
  call void @llvm.lifetime.end.p0(i64 8, ptr nonnull %4) #10
  ret ptr %.0.i
}